; Function Attrs: mustprogress nofree norecurse nosync nounwind willreturn memory(read, argmem: readwrite, inaccessiblemem: none) uwtable
define internal range(i32 -12, 1) i32 @HSC_Horizontal_Half_Line_Backward(ptr noundef captures(none) %0) #7 {
  %2 = getelementptr inbounds nuw i8, ptr %0, i64 72
  %3 = load ptr, ptr %2, align 8, !tbaa !14
  %4 = getelementptr inbounds nuw i8, ptr %3, i64 4
  %5 = load i16, ptr %4, align 4, !tbaa !27
  %6 = sext i16 %5 to i32
  %7 = add nsw i32 %6, 1
  %.neg = sdiv i32 %7, -2
  %8 = icmp slt i16 %5, -2
  %9 = tail call i32 @llvm.abs.i32(i32 range(i32 -32768, 32769) %.neg, i1 true)
  %10 = getelementptr inbounds nuw i8, ptr %0, i64 20
  %11 = load i32, ptr %10, align 4, !tbaa !31
  br i1 %8, label %12, label %25

12:                                               ; preds = %1
  %13 = add nsw i32 %11, %9
  %14 = getelementptr inbounds nuw i8, ptr %3, i64 16
  %15 = load i32, ptr %14, align 8, !tbaa !26
  %16 = sub nsw i32 %15, %6
  %17 = icmp sgt i32 %13, %16
  %18 = sub nsw i32 %16, %11
  %spec.select.i = select i1 %17, i32 %18, i32 %9
  %19 = icmp sgt i32 %spec.select.i, 0
  br i1 %19, label %20, label %HSC_Generic.exit

20:                                               ; preds = %12
  %21 = getelementptr inbounds nuw i8, ptr %0, i64 12
  %22 = load i32, ptr %21, align 4, !tbaa !18
  %23 = add nsw i32 %22, %spec.select.i
  store i32 %23, ptr %21, align 4, !tbaa !18
  %24 = add nsw i32 %spec.select.i, %11
  br label %HSC_Generic.exit.sink.split

25:                                               ; preds = %1
  %spec.select29.i = tail call i32 @llvm.smin.i32(i32 %9, i32 %11)
  %26 = icmp sgt i32 %spec.select29.i, 0
  br i1 %26, label %27, label %HSC_Generic.exit

27:                                               ; preds = %25
  %28 = getelementptr inbounds nuw i8, ptr %0, i64 12
  %29 = load i32, ptr %28, align 4, !tbaa !18
  %30 = sub nsw i32 %29, %spec.select29.i
  store i32 %30, ptr %28, align 4, !tbaa !18
  %31 = sub nsw i32 %11, %spec.select29.i
  br label %HSC_Generic.exit.sink.split

HSC_Generic.exit.sink.split:                      ; preds = %27, %20
  %.sink = phi i32 [ %24, %20 ], [ %31, %27 ]
  store i32 %.sink, ptr %10, align 4, !tbaa !31
  br label %HSC_Generic.exit

HSC_Generic.exit:                                 ; preds = %HSC_Generic.exit.sink.split, %12, %25
  %.025.i = phi i32 [ -12, %12 ], [ -12, %25 ], [ 0, %HSC_Generic.exit.sink.split ]
  ret i32 %.025.i
}